target datalayout = "e-m:e-p270:32:32-p271:32:32-p272:64:64-i64:64-i128:128-f80:128-n8:16:32:64-S128"
target triple = "x86_64-unknown-linux-gnu"

%"class.QuantLib::ExchangeRateManager" = type { %"class.std::map" }
%"class.std::map" = type { %"class.std::_Rb_tree.6" }
%"class.std::_Rb_tree.6" = type { %"struct.std::_Rb_tree<long, std::pair<const long, std::__cxx11::list<QuantLib::ExchangeRateManager::Entry>>, std::_Select1st<std::pair<const long, std::__cxx11::list<QuantLib::ExchangeRateManager::Entry>>>, std::less<long>>::_Rb_tree_impl" }
%"struct.std::_Rb_tree<long, std::pair<const long, std::__cxx11::list<QuantLib::ExchangeRateManager::Entry>>, std::_Select1st<std::pair<const long, std::__cxx11::list<QuantLib::ExchangeRateManager::Entry>>>, std::less<long>>::_Rb_tree_impl" = type { [8 x i8], %"struct.std::_Rb_tree_header" }
%"struct.std::_Rb_tree_header" = type { %"struct.std::_Rb_tree_node_base", i64 }
%"struct.std::_Rb_tree_node_base" = type { i32, ptr, ptr, ptr }

; Function Attrs: mustprogress nounwind uwtable
define linkonce_odr noundef ptr @_ZNKSt8_Rb_treeIlSt4pairIKlNSt7__cxx114listIN8QuantLib19ExchangeRateManager5EntryESaIS6_EEEESt10_Select1stIS9_ESt4lessIlESaIS9_EE9_M_mbeginEv(ptr noundef nonnull align 8 dereferenceable(48) %this) #3 comdat align 2 {
entry:
  %this.addr = alloca ptr, align 8
  store ptr %this, ptr %this.addr, align 8, !tbaa !3
  %this1 = load ptr, ptr %this.addr, align 8
  %_M_impl = getelementptr inbounds nuw %"class.std::_Rb_tree.6", ptr %this1, i32 0, i32 0
  %add.ptr = getelementptr inbounds i8, ptr %_M_impl, i64 8
  %_M_header = getelementptr inbounds nuw %"struct.std::_Rb_tree_header", ptr %add.ptr, i32 0, i32 0
  %_M_parent = getelementptr inbounds nuw %"struct.std::_Rb_tree_node_base", ptr %_M_header, i32 0, i32 1
  %0 = load ptr, ptr %_M_parent, align 8, !tbaa !61
  ret ptr %0
}

; Function Attrs: mustprogress nounwind uwtable
define linkonce_odr void @_ZNSt15_Rb_tree_header8_M_resetEv(ptr noundef nonnull align 8 dereferenceable(40) %this) #3 comdat align 2 {
entry:
  %this.addr = alloca ptr, align 8
  store ptr %this, ptr %this.addr, align 8, !tbaa !3
  %this1 = load ptr, ptr %this.addr, align 8
  %_M_header = getelementptr inbounds nuw %"struct.std::_Rb_tree_header", ptr %this1, i32 0, i32 0
  %_M_parent = getelementptr inbounds nuw %"struct.std::_Rb_tree_node_base", ptr %_M_header, i32 0, i32 1
  store ptr null, ptr %_M_parent, align 8, !tbaa !61
  %_M_header2 = getelementptr inbounds nuw %"struct.std::_Rb_tree_header", ptr %this1, i32 0, i32 0
  %_M_header3 = getelementptr inbounds nuw %"struct.std::_Rb_tree_header", ptr %this1, i32 0, i32 0
  %_M_left = getelementptr inbounds nuw %"struct.std::_Rb_tree_node_base", ptr %_M_header3, i32 0, i32 2
  store ptr %_M_header2, ptr %_M_left, align 8, !tbaa !62
  %_M_header4 = getelementptr inbounds nuw %"struct.std::_Rb_tree_header", ptr %this1, i32 0, i32 0
  %_M_header5 = getelementptr inbounds nuw %"struct.std::_Rb_tree_header", ptr %this1, i32 0, i32 0
  %_M_right = getelementptr inbounds nuw %"struct.std::_Rb_tree_node_base", ptr %_M_header5, i32 0, i32 3
  store ptr %_M_header4, ptr %_M_right, align 8, !tbaa !63
  %_M_node_count = getelementptr inbounds nuw %"struct.std::_Rb_tree_header", ptr %this1, i32 0, i32 1
  store i64 0, ptr %_M_node_count, align 8, !tbaa !64
  ret void
}

; Function Attrs: mustprogress nounwind uwtable
define linkonce_odr noundef ptr @_ZNSt8_Rb_treeIlSt4pairIKlNSt7__cxx114listIN8QuantLib19ExchangeRateManager5EntryESaIS6_EEEESt10_Select1stIS9_ESt4lessIlESaIS9_EE8_M_beginEv(ptr noundef nonnull align 8 dereferenceable(48) %this) #3 comdat align 2 {
entry:
  %this.addr = alloca ptr, align 8
  store ptr %this, ptr %this.addr, align 8, !tbaa !3
  %this1 = load ptr, ptr %this.addr, align 8
  %call = call noundef ptr @_ZNKSt8_Rb_treeIlSt4pairIKlNSt7__cxx114listIN8QuantLib19ExchangeRateManager5EntryESaIS6_EEEESt10_Select1stIS9_ESt4lessIlESaIS9_EE9_M_mbeginEv(ptr noundef nonnull align 8 dereferenceable(48) %this1) #11
  ret ptr %call
}

; Function Attrs: mustprogress nounwind uwtable
define linkonce_odr void @_ZNSt8_Rb_treeIlSt4pairIKlNSt7__cxx114listIN8QuantLib19ExchangeRateManager5EntryESaIS6_EEEESt10_Select1stIS9_ESt4lessIlESaIS9_EE5clearEv(ptr noundef nonnull align 8 dereferenceable(48) %this) #3 comdat align 2 personality ptr @__gxx_personality_v0 {
entry:
  %this.addr = alloca ptr, align 8
  store ptr %this, ptr %this.addr, align 8, !tbaa !3
  %this1 = load ptr, ptr %this.addr, align 8
  %call = call noundef ptr @_ZNSt8_Rb_treeIlSt4pairIKlNSt7__cxx114listIN8QuantLib19ExchangeRateManager5EntryESaIS6_EEEESt10_Select1stIS9_ESt4lessIlESaIS9_EE8_M_beginEv(ptr noundef nonnull align 8 dereferenceable(48) %this1) #11
  invoke void @_ZNSt8_Rb_treeIlSt4pairIKlNSt7__cxx114listIN8QuantLib19ExchangeRateManager5EntryESaIS6_EEEESt10_Select1stIS9_ESt4lessIlESaIS9_EE8_M_eraseEPSt13_Rb_tree_nodeIS9_E(ptr noundef nonnull align 8 dereferenceable(48) %this1, ptr noundef %call)
          to label %invoke.cont unwind label %terminate.lpad

invoke.cont:                                      ; preds = %entry
  %_M_impl = getelementptr inbounds nuw %"class.std::_Rb_tree.6", ptr %this1, i32 0, i32 0
  %add.ptr = getelementptr inbounds i8, ptr %_M_impl, i64 8
  call void @_ZNSt15_Rb_tree_header8_M_resetEv(ptr noundef nonnull align 8 dereferenceable(40) %add.ptr)
  ret void

terminate.lpad:                                   ; preds = %entry
  %0 = landingpad { ptr, i32 }
          catch ptr null
  %1 = extractvalue { ptr, i32 } %0, 0
  call void @__clang_call_terminate(ptr %1) #19
  unreachable
}

; Function Attrs: mustprogress nounwind uwtable
define linkonce_odr void @_ZNSt3mapIlNSt7__cxx114listIN8QuantLib19ExchangeRateManager5EntryESaIS4_EEESt4lessIlESaISt4pairIKlS6_EEE5clearEv(ptr noundef nonnull align 8 dereferenceable(48) %this) #3 comdat align 2 {
entry:
  %this.addr = alloca ptr, align 8
  store ptr %this, ptr %this.addr, align 8, !tbaa !3
  %this1 = load ptr, ptr %this.addr, align 8
  %_M_t = getelementptr inbounds nuw %"class.std::map", ptr %this1, i32 0, i32 0
  call void @_ZNSt8_Rb_treeIlSt4pairIKlNSt7__cxx114listIN8QuantLib19ExchangeRateManager5EntryESaIS6_EEEESt10_Select1stIS9_ESt4lessIlESaIS9_EE5clearEv(ptr noundef nonnull align 8 dereferenceable(48) %_M_t) #11
  ret void
}

; Function Attrs: mustprogress uwtable
define void @_ZN8QuantLib19ExchangeRateManager5clearEv(ptr noundef nonnull align 8 dereferenceable(48) %this) #4 align 2 {
entry:
  %this.addr = alloca ptr, align 8
  store ptr %this, ptr %this.addr, align 8, !tbaa !3
  %this1 = load ptr, ptr %this.addr, align 8
  %data_ = getelementptr inbounds nuw %"class.QuantLib::ExchangeRateManager", ptr %this1, i32 0, i32 0
  call void @_ZNSt3mapIlNSt7__cxx114listIN8QuantLib19ExchangeRateManager5EntryESaIS4_EEESt4lessIlESaISt4pairIKlS6_EEE5clearEv(ptr noundef nonnull align 8 dereferenceable(48) %data_) #11
  call void @_ZN8QuantLib19ExchangeRateManager13addKnownRatesEv(ptr noundef nonnull align 8 dereferenceable(48) %this1)
  ret void
}