; Function Attrs: mustprogress uwtable
define void @_ZN8QuantLib19ExchangeRateManager5clearEv(ptr noundef nonnull align 8 dereferenceable(48) %this) local_unnamed_addr #3 align 2 personality ptr @__gxx_personality_v0 {
entry:
  %_M_parent.i.i.i.i = getelementptr inbounds i8, ptr %this, i64 16
  %0 = load ptr, ptr %_M_parent.i.i.i.i, align 8, !tbaa !11
  invoke void @_ZNSt8_Rb_treeIlSt4pairIKlNSt7__cxx114listIN8QuantLib19ExchangeRateManager5EntryESaIS6_EEEESt10_Select1stIS9_ESt4lessIlESaIS9_EE8_M_eraseEPSt13_Rb_tree_nodeIS9_E(ptr noundef nonnull align 8 dereferenceable(48) %this, ptr noundef %0)
          to label %_ZNSt3mapIlNSt7__cxx114listIN8QuantLib19ExchangeRateManager5EntryESaIS4_EEESt4lessIlESaISt4pairIKlS6_EEE5clearEv.exit unwind label %terminate.lpad.i.i

terminate.lpad.i.i:                               ; preds = %entry
  %1 = landingpad { ptr, i32 }
          catch ptr null
  %2 = extractvalue { ptr, i32 } %1, 0
  tail call void @__clang_call_terminate(ptr %2) #23
  unreachable

_ZNSt3mapIlNSt7__cxx114listIN8QuantLib19ExchangeRateManager5EntryESaIS4_EEESt4lessIlESaISt4pairIKlS6_EEE5clearEv.exit: ; preds = %entry
  %add.ptr.i.i = getelementptr inbounds i8, ptr %this, i64 8
  store ptr null, ptr %_M_parent.i.i.i.i, align 8, !tbaa !11
  %_M_left.i.i.i = getelementptr inbounds i8, ptr %this, i64 24
  store ptr %add.ptr.i.i, ptr %_M_left.i.i.i, align 8, !tbaa !12
  %_M_right.i.i.i = getelementptr inbounds i8, ptr %this, i64 32
  store ptr %add.ptr.i.i, ptr %_M_right.i.i.i, align 8, !tbaa !13
  %_M_node_count.i.i.i = getelementptr inbounds i8, ptr %this, i64 40
  store i64 0, ptr %_M_node_count.i.i.i, align 8, !tbaa !14
  tail call void @_ZN8QuantLib19ExchangeRateManager13addKnownRatesEv(ptr noundef nonnull align 8 dereferenceable(48) %this)
  ret void
}